target datalayout = "e-m:e-p270:32:32-p271:32:32-p272:64:64-i64:64-i128:128-f80:128-n8:16:32:64-S128"
target triple = "x86_64-pc-linux-gnu"

%"class.draco::EncoderBase" = type { ptr, %"class.draco::EncoderOptionsBase", i64, i64 }
%"class.draco::EncoderOptionsBase" = type { %"class.draco::DracoOptions", %"class.draco::Options" }
%"class.draco::DracoOptions" = type { %"class.draco::Options", %"class.std::map.0" }
%"class.std::map.0" = type { %"class.std::_Rb_tree.1" }
%"class.std::_Rb_tree.1" = type { %"struct.std::_Rb_tree<draco::GeometryAttribute::Type, std::pair<const draco::GeometryAttribute::Type, draco::Options>, std::_Select1st<std::pair<const draco::GeometryAttribute::Type, draco::Options>>, std::less<draco::GeometryAttribute::Type>>::_Rb_tree_impl" }
%"struct.std::_Rb_tree<draco::GeometryAttribute::Type, std::pair<const draco::GeometryAttribute::Type, draco::Options>, std::_Select1st<std::pair<const draco::GeometryAttribute::Type, draco::Options>>, std::less<draco::GeometryAttribute::Type>>::_Rb_tree_impl" = type { [8 x i8], %"struct.std::_Rb_tree_header" }
%"struct.std::_Rb_tree_header" = type { %"struct.std::_Rb_tree_node_base", i64 }
%"struct.std::_Rb_tree_node_base" = type { i32, ptr, ptr, ptr }
%"class.draco::Options" = type { %"class.std::map" }
%"class.std::map" = type { %"class.std::_Rb_tree" }
%"class.std::_Rb_tree" = type { %"struct.std::_Rb_tree<std::__cxx11::basic_string<char>, std::pair<const std::__cxx11::basic_string<char>, std::__cxx11::basic_string<char>>, std::_Select1st<std::pair<const std::__cxx11::basic_string<char>, std::__cxx11::basic_string<char>>>, std::less<std::__cxx11::basic_string<char>>>::_Rb_tree_impl" }
%"struct.std::_Rb_tree<std::__cxx11::basic_string<char>, std::pair<const std::__cxx11::basic_string<char>, std::__cxx11::basic_string<char>>, std::_Select1st<std::pair<const std::__cxx11::basic_string<char>, std::__cxx11::basic_string<char>>>, std::less<std::__cxx11::basic_string<char>>>::_Rb_tree_impl" = type { [8 x i8], %"struct.std::_Rb_tree_header" }

; Function Attrs: mustprogress uwtable
define linkonce_odr noundef nonnull align 8 dereferenceable(48) ptr @_ZNSt3mapINSt7__cxx1112basic_stringIcSt11char_traitsIcESaIcEEES5_St4lessIS5_ESaISt4pairIKS5_S5_EEEaSERKSC_(ptr noundef nonnull align 8 dereferenceable(48) %0, ptr noundef nonnull align 8 dereferenceable(48) %1) #4 comdat align 2 {
  %3 = alloca ptr, align 8
  %4 = alloca ptr, align 8
  store ptr %0, ptr %3, align 8, !tbaa !96
  store ptr %1, ptr %4, align 8, !tbaa !96
  %5 = load ptr, ptr %3, align 8
  %6 = getelementptr inbounds nuw %"class.std::map", ptr %5, i32 0, i32 0
  %7 = load ptr, ptr %4, align 8, !tbaa !96
  %8 = getelementptr inbounds nuw %"class.std::map", ptr %7, i32 0, i32 0
  %9 = call noundef nonnull align 8 dereferenceable(48) ptr @_ZNSt8_Rb_treeINSt7__cxx1112basic_stringIcSt11char_traitsIcESaIcEEESt4pairIKS5_S5_ESt10_Select1stIS8_ESt4lessIS5_ESaIS8_EEaSERKSE_(ptr noundef nonnull align 8 dereferenceable(48) %6, ptr noundef nonnull align 8 dereferenceable(48) %8)
  ret ptr %5
}

; Function Attrs: mustprogress uwtable
define linkonce_odr noundef nonnull align 8 dereferenceable(48) ptr @_ZNSt3mapIN5draco17GeometryAttribute4TypeENS0_7OptionsESt4lessIS2_ESaISt4pairIKS2_S3_EEEaSERKSA_(ptr noundef nonnull align 8 dereferenceable(48) %0, ptr noundef nonnull align 8 dereferenceable(48) %1) #4 comdat align 2 {
  %3 = alloca ptr, align 8
  %4 = alloca ptr, align 8
  store ptr %0, ptr %3, align 8, !tbaa !156
  store ptr %1, ptr %4, align 8, !tbaa !156
  %5 = load ptr, ptr %3, align 8
  %6 = getelementptr inbounds nuw %"class.std::map.0", ptr %5, i32 0, i32 0
  %7 = load ptr, ptr %4, align 8, !tbaa !156
  %8 = getelementptr inbounds nuw %"class.std::map.0", ptr %7, i32 0, i32 0
  %9 = call noundef nonnull align 8 dereferenceable(48) ptr @_ZNSt8_Rb_treeIN5draco17GeometryAttribute4TypeESt4pairIKS2_NS0_7OptionsEESt10_Select1stIS6_ESt4lessIS2_ESaIS6_EEaSERKSC_(ptr noundef nonnull align 8 dereferenceable(48) %6, ptr noundef nonnull align 8 dereferenceable(48) %8)
  ret ptr %5
}

; Function Attrs: inlinehint mustprogress uwtable
define linkonce_odr noundef nonnull align 8 dereferenceable(48) ptr @_ZN5draco7OptionsaSERKS0_(ptr noundef nonnull align 8 dereferenceable(48) %0, ptr noundef nonnull align 8 dereferenceable(48) %1) #8 comdat align 2 {
  %3 = alloca ptr, align 8
  %4 = alloca ptr, align 8
  store ptr %0, ptr %3, align 8, !tbaa !41
  store ptr %1, ptr %4, align 8, !tbaa !41
  %5 = load ptr, ptr %3, align 8
  %6 = getelementptr inbounds nuw %"class.draco::Options", ptr %5, i32 0, i32 0
  %7 = load ptr, ptr %4, align 8, !tbaa !41
  %8 = getelementptr inbounds nuw %"class.draco::Options", ptr %7, i32 0, i32 0
  %9 = call noundef nonnull align 8 dereferenceable(48) ptr @_ZNSt3mapINSt7__cxx1112basic_stringIcSt11char_traitsIcESaIcEEES5_St4lessIS5_ESaISt4pairIKS5_S5_EEEaSERKSC_(ptr noundef nonnull align 8 dereferenceable(48) %6, ptr noundef nonnull align 8 dereferenceable(48) %8)
  ret ptr %5
}

; Function Attrs: inlinehint mustprogress uwtable
define linkonce_odr noundef nonnull align 8 dereferenceable(96) ptr @_ZN5draco12DracoOptionsINS_17GeometryAttribute4TypeEEaSERKS3_(ptr noundef nonnull align 8 dereferenceable(96) %0, ptr noundef nonnull align 8 dereferenceable(96) %1) #8 comdat align 2 {
  %3 = alloca ptr, align 8
  %4 = alloca ptr, align 8
  store ptr %0, ptr %3, align 8, !tbaa !72
  store ptr %1, ptr %4, align 8, !tbaa !72
  %5 = load ptr, ptr %3, align 8
  %6 = getelementptr inbounds nuw %"class.draco::DracoOptions", ptr %5, i32 0, i32 0
  %7 = load ptr, ptr %4, align 8, !tbaa !72
  %8 = getelementptr inbounds nuw %"class.draco::DracoOptions", ptr %7, i32 0, i32 0
  %9 = call noundef nonnull align 8 dereferenceable(48) ptr @_ZN5draco7OptionsaSERKS0_(ptr noundef nonnull align 8 dereferenceable(48) %6, ptr noundef nonnull align 8 dereferenceable(48) %8)
  %10 = getelementptr inbounds nuw %"class.draco::DracoOptions", ptr %5, i32 0, i32 1
  %11 = load ptr, ptr %4, align 8, !tbaa !72
  %12 = getelementptr inbounds nuw %"class.draco::DracoOptions", ptr %11, i32 0, i32 1
  %13 = call noundef nonnull align 8 dereferenceable(48) ptr @_ZNSt3mapIN5draco17GeometryAttribute4TypeENS0_7OptionsESt4lessIS2_ESaISt4pairIKS2_S3_EEEaSERKSA_(ptr noundef nonnull align 8 dereferenceable(48) %10, ptr noundef nonnull align 8 dereferenceable(48) %12)
  ret ptr %5
}

; Function Attrs: inlinehint mustprogress uwtable
define linkonce_odr noundef nonnull align 8 dereferenceable(144) ptr @_ZN5draco18EncoderOptionsBaseINS_17GeometryAttribute4TypeEEaSERKS3_(ptr noundef nonnull align 8 dereferenceable(144) %0, ptr noundef nonnull align 8 dereferenceable(144) %1) #8 comdat align 2 {
  %3 = alloca ptr, align 8
  %4 = alloca ptr, align 8
  store ptr %0, ptr %3, align 8, !tbaa !74
  store ptr %1, ptr %4, align 8, !tbaa !74
  %5 = load ptr, ptr %3, align 8
  %6 = load ptr, ptr %4, align 8, !tbaa !74
  %7 = call noundef nonnull align 8 dereferenceable(96) ptr @_ZN5draco12DracoOptionsINS_17GeometryAttribute4TypeEEaSERKS3_(ptr noundef nonnull align 8 dereferenceable(96) %5, ptr noundef nonnull align 8 dereferenceable(96) %6)
  %8 = getelementptr inbounds nuw %"class.draco::EncoderOptionsBase", ptr %5, i32 0, i32 1
  %9 = load ptr, ptr %4, align 8, !tbaa !74
  %10 = getelementptr inbounds nuw %"class.draco::EncoderOptionsBase", ptr %9, i32 0, i32 1
  %11 = call noundef nonnull align 8 dereferenceable(48) ptr @_ZN5draco7OptionsaSERKS0_(ptr noundef nonnull align 8 dereferenceable(48) %8, ptr noundef nonnull align 8 dereferenceable(48) %10)
  ret ptr %5
}

; Function Attrs: mustprogress uwtable
define linkonce_odr void @_ZN5draco11EncoderBaseINS_18EncoderOptionsBaseINS_17GeometryAttribute4TypeEEEE5ResetERKS4_(ptr noundef nonnull align 8 dereferenceable(168) %0, ptr noundef nonnull align 8 dereferenceable(144) %1) #4 comdat align 2 {
  %3 = alloca ptr, align 8
  %4 = alloca ptr, align 8
  store ptr %0, ptr %3, align 8, !tbaa !10
  store ptr %1, ptr %4, align 8, !tbaa !74
  %5 = load ptr, ptr %3, align 8
  %6 = load ptr, ptr %4, align 8, !tbaa !74
  %7 = getelementptr inbounds nuw %"class.draco::EncoderBase", ptr %5, i32 0, i32 1
  %8 = call noundef nonnull align 8 dereferenceable(144) ptr @_ZN5draco18EncoderOptionsBaseINS_17GeometryAttribute4TypeEEaSERKS3_(ptr noundef nonnull align 8 dereferenceable(144) %7, ptr noundef nonnull align 8 dereferenceable(144) %6)
  ret void
}

; Function Attrs: mustprogress uwtable
define void @_ZN5draco7Encoder5ResetERKNS_18EncoderOptionsBaseINS_17GeometryAttribute4TypeEEE(ptr noundef nonnull align 8 dereferenceable(168) %0, ptr noundef nonnull align 8 dereferenceable(144) %1) #4 align 2 {
  %3 = alloca ptr, align 8
  %4 = alloca ptr, align 8
  store ptr %0, ptr %3, align 8, !tbaa !3
  store ptr %1, ptr %4, align 8, !tbaa !74
  %5 = load ptr, ptr %3, align 8
  %6 = load ptr, ptr %4, align 8, !tbaa !74
  call void @_ZN5draco11EncoderBaseINS_18EncoderOptionsBaseINS_17GeometryAttribute4TypeEEEE5ResetERKS4_(ptr noundef nonnull align 8 dereferenceable(168) %5, ptr noundef nonnull align 8 dereferenceable(144) %6)
  ret void
}